; Function Attrs: mustprogress uwtable
define internal void @_ZN7rocksdb12_GLOBAL__N_18PosixEnv8ScheduleEPFvPvES2_NS_3Env8PriorityES2_S4_(ptr nocapture noundef nonnull readonly align 8 dereferenceable(200) %this, ptr noundef %function, ptr noundef %arg, i32 noundef %pri, ptr noundef %tag, ptr noundef %unschedFunction) unnamed_addr #3 align 2 {
entry:
  %thread_pools_ = getelementptr inbounds i8, ptr %this, i64 168
  %0 = load ptr, ptr %thread_pools_, align 8
  %conv = zext i32 %pri to i64
  %1 = load ptr, ptr %0, align 8
  %add.ptr.i = getelementptr inbounds %"class.rocksdb::ThreadPoolImpl", ptr %1, i64 %conv
  tail call void @_ZN7rocksdb14ThreadPoolImpl8ScheduleEPFvPvES1_S1_S3_(ptr noundef nonnull align 8 dereferenceable(16) %add.ptr.i, ptr noundef %function, ptr noundef %arg, ptr noundef %tag, ptr noundef %unschedFunction)
  ret void
}